target datalayout = "e-m:e-p270:32:32-p271:32:32-p272:64:64-i64:64-i128:128-f80:128-n8:16:32:64-S128"
target triple = "x86_64-pc-linux-gnu"

%struct.agxbuf = type { %union.anon.10 }
%union.anon.10 = type { %struct.anon.11 }
%struct.anon.11 = type { ptr, i64, i64, [7 x i8], i8 }

@stderr = external global ptr, align 8
@.str.26 = private unnamed_addr constant [49 x i8] c"out of memory when trying to allocate %zu bytes\0A\00", align 1
@.str.52 = private unnamed_addr constant [4 x i8] c"%s=\00", align 1
@.str.53 = private unnamed_addr constant [4 x i8] c"%c=\00", align 1
@.str.54 = private unnamed_addr constant [6 x i8] c"(%d)=\00", align 1
@.str.55 = private unnamed_addr constant [15 x i8] c"(EXTERNAL:%ld)\00", align 1
@.str.56 = private unnamed_addr constant [3 x i8] c"%c\00", align 1
@.str.57 = private unnamed_addr constant [6 x i8] c"(%ld)\00", align 1

; Function Attrs: inlinehint nounwind uwtable
define internal i64 @agxbsizeof(ptr noundef %0) #8 {
  %2 = alloca i64, align 8
  %3 = alloca ptr, align 8
  store ptr %0, ptr %3, align 8, !tbaa !10
  %4 = load ptr, ptr %3, align 8, !tbaa !10
  %5 = call zeroext i1 @agxbuf_is_inline(ptr noundef %4)
  br i1 %5, label %6, label %7

6:                                                ; preds = %1
  store i64 31, ptr %2, align 8
  br label %12

7:                                                ; preds = %1
  %8 = load ptr, ptr %3, align 8, !tbaa !10
  %9 = getelementptr inbounds nuw %struct.agxbuf, ptr %8, i32 0, i32 0
  %10 = getelementptr inbounds nuw %struct.anon.11, ptr %9, i32 0, i32 2
  %11 = load i64, ptr %10, align 8, !tbaa !11
  store i64 %11, ptr %2, align 8
  br label %12

12:                                               ; preds = %7, %6
  %13 = load i64, ptr %2, align 8
  ret i64 %13
}

; Function Attrs: inlinehint nounwind uwtable
define internal i32 @agxbputc(ptr noundef %0, i8 noundef signext %1) #8 {
  %3 = alloca ptr, align 8
  %4 = alloca i8, align 1
  %5 = alloca i64, align 8
  store ptr %0, ptr %3, align 8, !tbaa !10
  store i8 %1, ptr %4, align 1, !tbaa !11
  %6 = load ptr, ptr %3, align 8, !tbaa !10
  %7 = call i64 @agxblen(ptr noundef %6)
  %8 = load ptr, ptr %3, align 8, !tbaa !10
  %9 = call i64 @agxbsizeof(ptr noundef %8)
  %10 = icmp uge i64 %7, %9
  br i1 %10, label %11, label %13

11:                                               ; preds = %2
  %12 = load ptr, ptr %3, align 8, !tbaa !10
  call void @agxbmore(ptr noundef %12, i64 noundef 1)
  br label %13

13:                                               ; preds = %11, %2
  call void @llvm.lifetime.start.p0(i64 8, ptr %5) #15
  %14 = load ptr, ptr %3, align 8, !tbaa !10
  %15 = call i64 @agxblen(ptr noundef %14)
  store i64 %15, ptr %5, align 8, !tbaa !45
  %16 = load ptr, ptr %3, align 8, !tbaa !10
  %17 = call zeroext i1 @agxbuf_is_inline(ptr noundef %16)
  br i1 %17, label %18, label %29

18:                                               ; preds = %13
  %19 = load i8, ptr %4, align 1, !tbaa !11
  %20 = load ptr, ptr %3, align 8, !tbaa !10
  %21 = getelementptr inbounds nuw %struct.agxbuf, ptr %20, i32 0, i32 0
  %22 = load i64, ptr %5, align 8, !tbaa !45
  %23 = getelementptr inbounds nuw [31 x i8], ptr %21, i64 0, i64 %22
  store i8 %19, ptr %23, align 1, !tbaa !11
  %24 = load ptr, ptr %3, align 8, !tbaa !10
  %25 = getelementptr inbounds nuw %struct.agxbuf, ptr %24, i32 0, i32 0
  %26 = getelementptr inbounds nuw %struct.anon.11, ptr %25, i32 0, i32 4
  %27 = load i8, ptr %26, align 1, !tbaa !11
  %28 = add i8 %27, 1
  store i8 %28, ptr %26, align 1, !tbaa !11
  br label %42

29:                                               ; preds = %13
  %30 = load i8, ptr %4, align 1, !tbaa !11
  %31 = load ptr, ptr %3, align 8, !tbaa !10
  %32 = getelementptr inbounds nuw %struct.agxbuf, ptr %31, i32 0, i32 0
  %33 = getelementptr inbounds nuw %struct.anon.11, ptr %32, i32 0, i32 0
  %34 = load ptr, ptr %33, align 8, !tbaa !11
  %35 = load i64, ptr %5, align 8, !tbaa !45
  %36 = getelementptr inbounds nuw i8, ptr %34, i64 %35
  store i8 %30, ptr %36, align 1, !tbaa !11
  %37 = load ptr, ptr %3, align 8, !tbaa !10
  %38 = getelementptr inbounds nuw %struct.agxbuf, ptr %37, i32 0, i32 0
  %39 = getelementptr inbounds nuw %struct.anon.11, ptr %38, i32 0, i32 1
  %40 = load i64, ptr %39, align 8, !tbaa !11
  %41 = add i64 %40, 1
  store i64 %41, ptr %39, align 8, !tbaa !11
  br label %42

42:                                               ; preds = %29, %18
  call void @llvm.lifetime.end.p0(i64 8, ptr %5) #15
  ret i32 0
}

; Function Attrs: inlinehint nounwind uwtable
define internal ptr @gv_strndup(ptr noundef %0, i64 noundef %1) #8 {
  %3 = alloca ptr, align 8
  %4 = alloca i64, align 8
  %5 = alloca ptr, align 8
  store ptr %0, ptr %3, align 8, !tbaa !42
  store i64 %1, ptr %4, align 8, !tbaa !45
  call void @llvm.lifetime.start.p0(i64 8, ptr %5) #15
  %6 = load ptr, ptr %3, align 8, !tbaa !42
  %7 = load i64, ptr %4, align 8, !tbaa !45
  %8 = call noalias ptr @strndup(ptr noundef %6, i64 noundef %7) #15
  store ptr %8, ptr %5, align 8, !tbaa !42
  %9 = load ptr, ptr %5, align 8, !tbaa !42
  %10 = icmp eq ptr %9, null
  br i1 %10, label %11, label %16

11:                                               ; preds = %2
  %12 = load ptr, ptr @stderr, align 8, !tbaa !50
  %13 = load i64, ptr %4, align 8, !tbaa !45
  %14 = add i64 %13, 1
  %15 = call i32 (ptr, ptr, ...) @fprintf(ptr noundef %12, ptr noundef @.str.26, i64 noundef %14) #15
  call void @graphviz_exit(i32 noundef 1) #16
  unreachable

16:                                               ; preds = %2
  %17 = load ptr, ptr %5, align 8, !tbaa !42
  call void @llvm.lifetime.end.p0(i64 8, ptr %5) #15
  ret ptr %17
}

; Function Attrs: inlinehint nounwind uwtable
define internal i64 @agxblen(ptr noundef %0) #8 {
  %2 = alloca i64, align 8
  %3 = alloca ptr, align 8
  store ptr %0, ptr %3, align 8, !tbaa !10
  %4 = load ptr, ptr %3, align 8, !tbaa !10
  %5 = call zeroext i1 @agxbuf_is_inline(ptr noundef %4)
  br i1 %5, label %6, label %14

6:                                                ; preds = %1
  %7 = load ptr, ptr %3, align 8, !tbaa !10
  %8 = getelementptr inbounds nuw %struct.agxbuf, ptr %7, i32 0, i32 0
  %9 = getelementptr inbounds nuw %struct.anon.11, ptr %8, i32 0, i32 4
  %10 = load i8, ptr %9, align 1, !tbaa !11
  %11 = zext i8 %10 to i32
  %12 = sub nsw i32 %11, 0
  %13 = sext i32 %12 to i64
  store i64 %13, ptr %2, align 8
  br label %19

14:                                               ; preds = %1
  %15 = load ptr, ptr %3, align 8, !tbaa !10
  %16 = getelementptr inbounds nuw %struct.agxbuf, ptr %15, i32 0, i32 0
  %17 = getelementptr inbounds nuw %struct.anon.11, ptr %16, i32 0, i32 1
  %18 = load i64, ptr %17, align 8, !tbaa !11
  store i64 %18, ptr %2, align 8
  br label %19

19:                                               ; preds = %14, %6
  %20 = load i64, ptr %2, align 8
  ret i64 %20
}

; Function Attrs: inlinehint nounwind uwtable
define internal zeroext i1 @agxbuf_is_inline(ptr noundef %0) #8 {
  %2 = alloca ptr, align 8
  store ptr %0, ptr %2, align 8, !tbaa !10
  %3 = load ptr, ptr %2, align 8, !tbaa !10
  %4 = getelementptr inbounds nuw %struct.agxbuf, ptr %3, i32 0, i32 0
  %5 = getelementptr inbounds nuw %struct.anon.11, ptr %4, i32 0, i32 4
  %6 = load i8, ptr %5, align 1, !tbaa !11
  %7 = zext i8 %6 to i32
  %8 = icmp slt i32 %7, 255
  ret i1 %8
}

; Function Attrs: inlinehint nounwind uwtable
define internal ptr @agxbdisown(ptr noundef %0) #8 {
  %2 = alloca ptr, align 8
  %3 = alloca ptr, align 8
  store ptr %0, ptr %2, align 8, !tbaa !10
  call void @llvm.lifetime.start.p0(i64 8, ptr %3) #15
  %4 = load ptr, ptr %2, align 8, !tbaa !10
  %5 = call zeroext i1 @agxbuf_is_inline(ptr noundef %4)
  br i1 %5, label %6, label %13

6:                                                ; preds = %1
  %7 = load ptr, ptr %2, align 8, !tbaa !10
  %8 = getelementptr inbounds nuw %struct.agxbuf, ptr %7, i32 0, i32 0
  %9 = getelementptr inbounds [31 x i8], ptr %8, i64 0, i64 0
  %10 = load ptr, ptr %2, align 8, !tbaa !10
  %11 = call i64 @agxblen(ptr noundef %10)
  %12 = call ptr @gv_strndup(ptr noundef %9, i64 noundef %11)
  store ptr %12, ptr %3, align 8, !tbaa !42
  br label %20

13:                                               ; preds = %1
  %14 = load ptr, ptr %2, align 8, !tbaa !10
  %15 = call i32 @agxbputc(ptr noundef %14, i8 noundef signext 0)
  %16 = load ptr, ptr %2, align 8, !tbaa !10
  %17 = getelementptr inbounds nuw %struct.agxbuf, ptr %16, i32 0, i32 0
  %18 = getelementptr inbounds nuw %struct.anon.11, ptr %17, i32 0, i32 0
  %19 = load ptr, ptr %18, align 8, !tbaa !11
  store ptr %19, ptr %3, align 8, !tbaa !42
  br label %20

20:                                               ; preds = %13, %6
  %21 = load ptr, ptr %2, align 8, !tbaa !10
  call void @llvm.memset.p0.i64(ptr align 8 %21, i8 0, i64 32, i1 false)
  %22 = load ptr, ptr %3, align 8, !tbaa !42
  call void @llvm.lifetime.end.p0(i64 8, ptr %3) #15
  ret ptr %22
}

; Function Attrs: inlinehint nounwind uwtable
define internal ptr @gv_strdup(ptr noundef %0) #8 {
  %2 = alloca ptr, align 8
  %3 = alloca ptr, align 8
  store ptr %0, ptr %2, align 8, !tbaa !42
  call void @llvm.lifetime.start.p0(i64 8, ptr %3) #15
  %4 = load ptr, ptr %2, align 8, !tbaa !42
  %5 = call noalias ptr @strdup(ptr noundef %4) #15
  store ptr %5, ptr %3, align 8, !tbaa !42
  %6 = load ptr, ptr %3, align 8, !tbaa !42
  %7 = icmp eq ptr %6, null
  br i1 %7, label %8, label %14

8:                                                ; preds = %1
  %9 = load ptr, ptr @stderr, align 8, !tbaa !50
  %10 = load ptr, ptr %2, align 8, !tbaa !42
  %11 = call i64 @strlen(ptr noundef %10) #18
  %12 = add i64 %11, 1
  %13 = call i32 (ptr, ptr, ...) @fprintf(ptr noundef %9, ptr noundef @.str.26, i64 noundef %12) #15
  call void @graphviz_exit(i32 noundef 1) #16
  unreachable

14:                                               ; preds = %1
  %15 = load ptr, ptr %3, align 8, !tbaa !42
  call void @llvm.lifetime.end.p0(i64 8, ptr %3) #15
  ret ptr %15
}

; Function Attrs: nounwind uwtable
define internal ptr @lexname(i64 noundef %0, i32 noundef %1) #0 {
  %3 = alloca ptr, align 8
  %4 = alloca i64, align 8
  %5 = alloca i32, align 4
  %6 = alloca %struct.agxbuf, align 8
  %7 = alloca i32, align 4
  store i64 %0, ptr %4, align 8, !tbaa !45
  store i32 %1, ptr %5, align 4, !tbaa !38
  call void @llvm.lifetime.start.p0(i64 32, ptr %6) #15
  call void @llvm.memset.p0.i64(ptr align 8 %6, i8 0, i64 32, i1 false)
  %8 = load i64, ptr %4, align 8, !tbaa !45
  %9 = icmp sgt i64 %8, 258
  br i1 %9, label %10, label %18

10:                                               ; preds = %2
  %11 = load i64, ptr %4, align 8, !tbaa !45
  %12 = icmp slt i64 %11, 335
  br i1 %12, label %13, label %18

13:                                               ; preds = %10
  %14 = load i64, ptr %4, align 8, !tbaa !45
  %15 = sub i64 %14, 258
  %16 = call ptr @exop(i64 noundef %15)
  %17 = call ptr @gv_strdup(ptr noundef %16)
  store ptr %17, ptr %3, align 8
  store i32 1, ptr %7, align 4
  br label %71

18:                                               ; preds = %10, %2
  %19 = load i64, ptr %4, align 8, !tbaa !45
  %20 = icmp eq i64 %19, 61
  br i1 %20, label %21, label %47

21:                                               ; preds = %18
  %22 = load i32, ptr %5, align 4, !tbaa !38
  %23 = icmp sgt i32 %22, 258
  br i1 %23, label %24, label %33

24:                                               ; preds = %21
  %25 = load i32, ptr %5, align 4, !tbaa !38
  %26 = icmp slt i32 %25, 335
  br i1 %26, label %27, label %33

27:                                               ; preds = %24
  %28 = load i32, ptr %5, align 4, !tbaa !38
  %29 = sext i32 %28 to i64
  %30 = sub i64 %29, 258
  %31 = call ptr @exop(i64 noundef %30)
  %32 = call i32 (ptr, ptr, ...) @agxbprint(ptr noundef %6, ptr noundef @.str.52, ptr noundef %31)
  br label %46

33:                                               ; preds = %24, %21
  %34 = load i32, ptr %5, align 4, !tbaa !38
  %35 = icmp sgt i32 %34, 32
  br i1 %35, label %36, label %42

36:                                               ; preds = %33
  %37 = load i32, ptr %5, align 4, !tbaa !38
  %38 = icmp sle i32 %37, 126
  br i1 %38, label %39, label %42

39:                                               ; preds = %36
  %40 = load i32, ptr %5, align 4, !tbaa !38
  %41 = call i32 (ptr, ptr, ...) @agxbprint(ptr noundef %6, ptr noundef @.str.53, i32 noundef %40)
  br label %45

42:                                               ; preds = %36, %33
  %43 = load i32, ptr %5, align 4, !tbaa !38
  %44 = call i32 (ptr, ptr, ...) @agxbprint(ptr noundef %6, ptr noundef @.str.54, i32 noundef %43)
  br label %45

45:                                               ; preds = %42, %39
  br label %46

46:                                               ; preds = %45, %27
  br label %69

47:                                               ; preds = %18
  %48 = load i32, ptr %5, align 4, !tbaa !38
  %49 = icmp slt i32 %48, 0
  br i1 %49, label %50, label %53

50:                                               ; preds = %47
  %51 = load i64, ptr %4, align 8, !tbaa !45
  %52 = call i32 (ptr, ptr, ...) @agxbprint(ptr noundef %6, ptr noundef @.str.55, i64 noundef %51)
  br label %68

53:                                               ; preds = %47
  %54 = load i64, ptr %4, align 8, !tbaa !45
  %55 = icmp sgt i64 %54, 32
  br i1 %55, label %56, label %64

56:                                               ; preds = %53
  %57 = load i64, ptr %4, align 8, !tbaa !45
  %58 = icmp sle i64 %57, 126
  br i1 %58, label %59, label %64

59:                                               ; preds = %56
  %60 = load i64, ptr %4, align 8, !tbaa !45
  %61 = trunc i64 %60 to i8
  %62 = sext i8 %61 to i32
  %63 = call i32 (ptr, ptr, ...) @agxbprint(ptr noundef %6, ptr noundef @.str.56, i32 noundef %62)
  br label %67

64:                                               ; preds = %56, %53
  %65 = load i64, ptr %4, align 8, !tbaa !45
  %66 = call i32 (ptr, ptr, ...) @agxbprint(ptr noundef %6, ptr noundef @.str.57, i64 noundef %65)
  br label %67

67:                                               ; preds = %64, %59
  br label %68

68:                                               ; preds = %67, %50
  br label %69

69:                                               ; preds = %68, %46
  %70 = call ptr @agxbdisown(ptr noundef %6)
  store ptr %70, ptr %3, align 8
  store i32 1, ptr %7, align 4
  br label %71

71:                                               ; preds = %69, %13
  call void @llvm.lifetime.end.p0(i64 32, ptr %6) #15
  %72 = load ptr, ptr %3, align 8
  ret ptr %72
}