; Function Attrs: nounwind uwtable
define internal fastcc ptr @lexname(i64 noundef %0, i32 noundef %1) unnamed_addr #0 {
  %3 = alloca %struct.agxbuf, align 8
  call void @llvm.lifetime.start.p0(i64 32, ptr nonnull %3) #25
  call void @llvm.memset.p0.i64(ptr noundef nonnull align 8 dereferenceable(32) %3, i8 0, i64 32, i1 false)
  %4 = add i64 %0, -259
  %or.cond = icmp ult i64 %4, 76
  br i1 %or.cond, label %5, label %15

5:                                                ; preds = %2
  %6 = add nsw i64 %0, -258
  %7 = tail call ptr @exop(i64 noundef %6) #25
  %8 = tail call noalias ptr @strdup(ptr noundef readonly %7) #25
  %9 = icmp eq ptr %8, null
  br i1 %9, label %10, label %gv_strdup.exit

10:                                               ; preds = %5
  %11 = load ptr, ptr @stderr, align 8, !tbaa !45
  %12 = tail call i64 @strlen(ptr noundef nonnull readonly dereferenceable(1) %7) #30
  %13 = add i64 %12, 1
  %14 = tail call i32 (ptr, ptr, ...) @fprintf(ptr noundef %11, ptr noundef nonnull @.str.26, i64 noundef %13) #26
  tail call fastcc void @graphviz_exit(i32 noundef 1) #28
  unreachable

15:                                               ; preds = %2
  %16 = icmp eq i64 %0, 61
  br i1 %16, label %17, label %27

17:                                               ; preds = %15
  %18 = add i32 %1, -259
  %or.cond3 = icmp ult i32 %18, 76
  br i1 %or.cond3, label %19, label %23

19:                                               ; preds = %17
  %20 = zext nneg i32 %1 to i64
  %21 = add nsw i64 %20, -258
  %22 = tail call ptr @exop(i64 noundef %21) #25
  call void (ptr, ptr, ...) @agxbprint(ptr noundef %3, ptr noundef nonnull @.str.52, ptr noundef %22)
  br label %35

23:                                               ; preds = %17
  %24 = add i32 %1, -33
  %or.cond5 = icmp ult i32 %24, 94
  br i1 %or.cond5, label %25, label %26

25:                                               ; preds = %23
  call void (ptr, ptr, ...) @agxbprint(ptr noundef %3, ptr noundef nonnull @.str.53, i32 noundef %1)
  br label %35

26:                                               ; preds = %23
  call void (ptr, ptr, ...) @agxbprint(ptr noundef %3, ptr noundef nonnull @.str.54, i32 noundef %1)
  br label %35

27:                                               ; preds = %15
  %28 = icmp slt i32 %1, 0
  br i1 %28, label %29, label %30

29:                                               ; preds = %27
  call void (ptr, ptr, ...) @agxbprint(ptr noundef %3, ptr noundef nonnull @.str.55, i64 noundef %0)
  br label %35

30:                                               ; preds = %27
  %31 = add i64 %0, -33
  %or.cond7 = icmp ult i64 %31, 94
  br i1 %or.cond7, label %32, label %34

32:                                               ; preds = %30
  %33 = trunc nuw i64 %0 to i32
  call void (ptr, ptr, ...) @agxbprint(ptr noundef %3, ptr noundef nonnull @.str.56, i32 noundef %33)
  br label %35

34:                                               ; preds = %30
  call void (ptr, ptr, ...) @agxbprint(ptr noundef %3, ptr noundef nonnull @.str.57, i64 noundef %0)
  br label %35

35:                                               ; preds = %29, %34, %32, %19, %26, %25
  %36 = getelementptr inbounds nuw i8, ptr %3, i64 31
  %.val.i = load i8, ptr %36, align 1, !tbaa !3
  %.not.i = icmp eq i8 %.val.i, -1
  br i1 %.not.i, label %agxbsizeof.exit.i.i, label %agxblen.exit.i

agxblen.exit.i:                                   ; preds = %35
  %37 = zext i8 %.val.i to i64
  %38 = call noalias ptr @strndup(ptr noundef nonnull readonly %3, i64 noundef %37) #25
  %39 = icmp eq ptr %38, null
  br i1 %39, label %40, label %gv_strdup.exit

40:                                               ; preds = %agxblen.exit.i
  %41 = load ptr, ptr @stderr, align 8, !tbaa !45
  %42 = add nuw nsw i64 %37, 1
  %43 = tail call i32 (ptr, ptr, ...) @fprintf(ptr noundef %41, ptr noundef nonnull @.str.26, i64 noundef %42) #26
  tail call fastcc void @graphviz_exit(i32 noundef 1) #28
  unreachable

agxbsizeof.exit.i.i:                              ; preds = %35
  %44 = getelementptr inbounds nuw i8, ptr %3, i64 8
  %45 = load i64, ptr %44, align 8, !tbaa !3
  %46 = getelementptr inbounds nuw i8, ptr %3, i64 16
  %47 = load i64, ptr %46, align 8, !tbaa !3
  %.not.i7.i = icmp ult i64 %45, %47
  br i1 %.not.i7.i, label %.thread.i, label %48

48:                                               ; preds = %agxbsizeof.exit.i.i
  call fastcc void @agxbmore(ptr noundef nonnull %3, i64 noundef 1)
  %.val.i15.pre.i.i = load i8, ptr %36, align 1, !tbaa !3
  %.not.i16.i.i = icmp eq i8 %.val.i15.pre.i.i, -1
  br i1 %.not.i16.i.i, label %..thread_crit_edge.i, label %49

..thread_crit_edge.i:                             ; preds = %48
  %.pre.i = load i64, ptr %44, align 8, !tbaa !3
  br label %.thread.i

49:                                               ; preds = %48
  %50 = zext i8 %.val.i15.pre.i.i to i64
  %51 = getelementptr inbounds nuw [31 x i8], ptr %3, i64 0, i64 %50
  store i8 0, ptr %51, align 1, !tbaa !3
  %.pre = load ptr, ptr %3, align 8, !tbaa !3
  br label %gv_strdup.exit

.thread.i:                                        ; preds = %..thread_crit_edge.i, %agxbsizeof.exit.i.i
  %52 = phi i64 [ %.pre.i, %..thread_crit_edge.i ], [ %45, %agxbsizeof.exit.i.i ]
  %53 = load ptr, ptr %3, align 8, !tbaa !3
  %54 = getelementptr inbounds nuw i8, ptr %53, i64 %52
  store i8 0, ptr %54, align 1, !tbaa !3
  br label %gv_strdup.exit

gv_strdup.exit:                                   ; preds = %agxblen.exit.i, %.thread.i, %49, %5
  %.0 = phi ptr [ %8, %5 ], [ %38, %agxblen.exit.i ], [ %53, %.thread.i ], [ %.pre, %49 ]
  call void @llvm.lifetime.end.p0(i64 32, ptr nonnull %3) #25
  ret ptr %.0
}